target datalayout = "e-m:e-p270:32:32-p271:32:32-p272:64:64-i64:64-i128:128-f80:128-n8:16:32:64-S128"
target triple = "x86_64-pc-linux-gnu"

%struct.ident_t = type { i32, i32, i32, i32, ptr }
%"struct.faiss::Quantizer" = type { ptr, i64, i64 }

@1 = private unnamed_addr constant %struct.ident_t { i32 0, i32 514, i32 0, i32 22, ptr @0 }, align 8

; Function Attrs: noreturn nounwind uwtable
define linkonce_odr hidden void @__clang_call_terminate(ptr noundef %0) #3 comdat {
  %2 = call ptr @__cxa_begin_catch(ptr %0) #12
  call void @_ZSt9terminatev() #16
  unreachable
}

; Function Attrs: norecurse nounwind uwtable
define internal void @_ZNK5faiss16ProductQuantizer6decodeEPKhPfm.omp_outlined(ptr noalias noundef %0, ptr noalias noundef %1, ptr noundef nonnull align 8 dereferenceable(8) %2, ptr noundef %3, ptr noundef nonnull align 8 dereferenceable(8) %4, ptr noundef nonnull align 8 dereferenceable(8) %5) #11 personality ptr @__gxx_personality_v0 {
  %7 = alloca ptr, align 8
  %8 = alloca ptr, align 8
  %9 = alloca ptr, align 8
  %10 = alloca ptr, align 8
  %11 = alloca ptr, align 8
  %12 = alloca ptr, align 8
  %13 = alloca i64, align 8
  %14 = alloca i64, align 8
  %15 = alloca i64, align 8
  %16 = alloca i64, align 8
  %17 = alloca i64, align 8
  %18 = alloca i64, align 8
  %19 = alloca i64, align 8
  %20 = alloca i32, align 4
  %21 = alloca i64, align 8
  store ptr %0, ptr %7, align 8
  store ptr %1, ptr %8, align 8
  store ptr %2, ptr %9, align 8
  store ptr %3, ptr %10, align 8
  store ptr %4, ptr %11, align 8
  store ptr %5, ptr %12, align 8
  %22 = load ptr, ptr %9, align 8
  %23 = load ptr, ptr %10, align 8
  %24 = load ptr, ptr %11, align 8
  %25 = load ptr, ptr %12, align 8
  %26 = load i64, ptr %22, align 8
  store i64 %26, ptr %14, align 8
  %27 = load i64, ptr %14, align 8
  %28 = sub i64 %27, 0
  %29 = udiv i64 %28, 1
  %30 = sub i64 %29, 1
  store i64 %30, ptr %15, align 8
  store i64 0, ptr %16, align 8
  %31 = load i64, ptr %14, align 8
  %32 = icmp ult i64 0, %31
  br i1 %32, label %33, label %77

33:                                               ; preds = %6
  store i64 0, ptr %17, align 8
  %34 = load i64, ptr %15, align 8
  store i64 %34, ptr %18, align 8
  store i64 1, ptr %19, align 8
  store i32 0, ptr %20, align 4
  %35 = load ptr, ptr %7, align 8
  %36 = load i32, ptr %35, align 4
  call void @__kmpc_for_static_init_8u(ptr @1, i32 %36, i32 34, ptr %20, ptr %17, ptr %18, ptr %19, i64 1, i64 1)
  %37 = load i64, ptr %18, align 8
  %38 = load i64, ptr %15, align 8
  %39 = icmp ugt i64 %37, %38
  br i1 %39, label %40, label %42

40:                                               ; preds = %33
  %41 = load i64, ptr %15, align 8
  br label %44

42:                                               ; preds = %33
  %43 = load i64, ptr %18, align 8
  br label %44

44:                                               ; preds = %42, %40
  %45 = phi i64 [ %41, %40 ], [ %43, %42 ]
  store i64 %45, ptr %18, align 8
  %46 = load i64, ptr %17, align 8
  store i64 %46, ptr %13, align 8
  br label %47

47:                                               ; preds = %70, %44
  %48 = load i64, ptr %13, align 8
  %49 = load i64, ptr %18, align 8
  %50 = add i64 %49, 1
  %51 = icmp ult i64 %48, %50
  br i1 %51, label %52, label %73

52:                                               ; preds = %47
  %53 = load i64, ptr %13, align 8
  %54 = mul i64 %53, 1
  %55 = add i64 0, %54
  store i64 %55, ptr %21, align 8
  %56 = load ptr, ptr %24, align 8
  %57 = getelementptr inbounds %"struct.faiss::Quantizer", ptr %23, i32 0, i32 2
  %58 = load i64, ptr %57, align 8
  %59 = load i64, ptr %21, align 8
  %60 = mul i64 %58, %59
  %61 = getelementptr inbounds i8, ptr %56, i64 %60
  %62 = load ptr, ptr %25, align 8
  %63 = getelementptr inbounds %"struct.faiss::Quantizer", ptr %23, i32 0, i32 1
  %64 = load i64, ptr %63, align 8
  %65 = load i64, ptr %21, align 8
  %66 = mul i64 %64, %65
  %67 = getelementptr inbounds float, ptr %62, i64 %66
  invoke void @_ZNK5faiss16ProductQuantizer6decodeEPKhPf(ptr noundef nonnull align 8 dereferenceable(208) %23, ptr noundef %61, ptr noundef %67)
          to label %68 unwind label %78

68:                                               ; preds = %52
  br label %69

69:                                               ; preds = %68
  br label %70

70:                                               ; preds = %69
  %71 = load i64, ptr %13, align 8
  %72 = add i64 %71, 1
  store i64 %72, ptr %13, align 8
  br label %47

73:                                               ; preds = %47
  br label %74

74:                                               ; preds = %73
  %75 = load ptr, ptr %7, align 8
  %76 = load i32, ptr %75, align 4
  call void @__kmpc_for_static_fini(ptr @1, i32 %76)
  br label %77

77:                                               ; preds = %74, %6
  ret void

78:                                               ; preds = %52
  %79 = landingpad { ptr, i32 }
          catch ptr null
  %80 = extractvalue { ptr, i32 } %79, 0
  call void @__clang_call_terminate(ptr %80) #16
  unreachable
}