; Function Attrs: norecurse nounwind uwtable
define internal void @_ZNK5faiss16ProductQuantizer6decodeEPKhPfm.omp_outlined(ptr noalias nocapture noundef readonly %0, ptr noalias nocapture readnone %1, ptr nocapture noundef nonnull readonly align 8 dereferenceable(8) %2, ptr nocapture noundef readonly %3, ptr nocapture noundef nonnull readonly align 8 dereferenceable(8) %4, ptr nocapture noundef nonnull readonly align 8 dereferenceable(8) %5) #15 personality ptr @__gxx_personality_v0 {
  %7 = alloca i64, align 8
  %8 = alloca i64, align 8
  %9 = alloca i64, align 8
  %10 = alloca i32, align 4
  %11 = load i64, ptr %2, align 8
  %.not = icmp eq i64 %11, 0
  br i1 %.not, label %33, label %12

12:                                               ; preds = %6
  %13 = add i64 %11, -1
  store i64 0, ptr %7, align 8
  store i64 %13, ptr %8, align 8
  store i64 1, ptr %9, align 8
  store i32 0, ptr %10, align 4
  %14 = load i32, ptr %0, align 4
  call void @__kmpc_for_static_init_8u(ptr nonnull @1, i32 %14, i32 34, ptr nonnull %10, ptr nonnull %7, ptr nonnull %8, ptr nonnull %9, i64 1, i64 1)
  %15 = load i64, ptr %8, align 8
  %16 = call i64 @llvm.umin.i64(i64 %15, i64 %13)
  store i64 %16, ptr %8, align 8
  %17 = load i64, ptr %7, align 8
  %.not16 = icmp ugt i64 %17, %16
  br i1 %.not16, label %._crit_edge, label %.lr.ph

.lr.ph:                                           ; preds = %12
  %18 = getelementptr inbounds i8, ptr %3, i64 16
  %19 = getelementptr inbounds i8, ptr %3, i64 8
  br label %20

20:                                               ; preds = %.lr.ph, %20
  %.015 = phi i64 [ %17, %.lr.ph ], [ %29, %20 ]
  %21 = load ptr, ptr %4, align 8
  %22 = load i64, ptr %18, align 8
  %23 = mul i64 %22, %.015
  %24 = getelementptr inbounds i8, ptr %21, i64 %23
  %25 = load ptr, ptr %5, align 8
  %26 = load i64, ptr %19, align 8
  %27 = mul i64 %26, %.015
  %28 = getelementptr inbounds float, ptr %25, i64 %27
  call void @_ZNK5faiss16ProductQuantizer6decodeEPKhPf(ptr noundef nonnull align 8 dereferenceable(208) %3, ptr noundef %24, ptr noundef %28)
  %29 = add nuw i64 %.015, 1
  %30 = load i64, ptr %8, align 8
  %31 = add i64 %30, 1
  %32 = icmp ult i64 %29, %31
  br i1 %32, label %20, label %._crit_edge

._crit_edge:                                      ; preds = %20, %12
  call void @__kmpc_for_static_fini(ptr nonnull @1, i32 %14)
  br label %33

33:                                               ; preds = %._crit_edge, %6
  ret void
}